target datalayout = "e-m:e-p270:32:32-p271:32:32-p272:64:64-i64:64-i128:128-f80:128-n8:16:32:64-S128"
target triple = "x86_64-pc-linux-gnu"

%"class.google::protobuf::stringpiece_internal::StringPiece" = type { ptr, i64 }

; Function Attrs: mustprogress nounwind uwtable
define linkonce_odr hidden noundef i64 @_ZN6google8protobuf20stringpiece_internal11StringPiece9CheckSizeEm(i64 noundef %0) #2 comdat align 2 {
  %2 = alloca i64, align 8
  store i64 %0, ptr %2, align 8, !tbaa !15
  %3 = load i64, ptr %2, align 8, !tbaa !15
  ret i64 %3
}

; Function Attrs: mustprogress uwtable
define linkonce_odr hidden void @_ZN6google8protobuf20stringpiece_internal11StringPieceC2EPKcm(ptr noundef nonnull align 8 dereferenceable(16) %0, ptr noundef %1, i64 noundef %2) unnamed_addr #0 comdat align 2 {
  %4 = alloca ptr, align 8
  %5 = alloca ptr, align 8
  %6 = alloca i64, align 8
  store ptr %0, ptr %4, align 8, !tbaa !8
  store ptr %1, ptr %5, align 8, !tbaa !16
  store i64 %2, ptr %6, align 8, !tbaa !15
  %7 = load ptr, ptr %4, align 8
  %8 = getelementptr inbounds nuw %"class.google::protobuf::stringpiece_internal::StringPiece", ptr %7, i32 0, i32 0
  %9 = load ptr, ptr %5, align 8, !tbaa !16
  store ptr %9, ptr %8, align 8, !tbaa !10
  %10 = getelementptr inbounds nuw %"class.google::protobuf::stringpiece_internal::StringPiece", ptr %7, i32 0, i32 1
  %11 = load i64, ptr %6, align 8, !tbaa !15
  %12 = call noundef i64 @_ZN6google8protobuf20stringpiece_internal11StringPiece9CheckSizeEm(i64 noundef %11)
  store i64 %12, ptr %10, align 8, !tbaa !14
  ret void
}

; Function Attrs: mustprogress nounwind uwtable
define linkonce_odr hidden noundef i64 @_ZNK6google8protobuf20stringpiece_internal11StringPiece6lengthEv(ptr noundef nonnull align 8 dereferenceable(16) %0) #2 comdat align 2 {
  %2 = alloca ptr, align 8
  store ptr %0, ptr %2, align 8, !tbaa !8
  %3 = load ptr, ptr %2, align 8
  %4 = getelementptr inbounds nuw %"class.google::protobuf::stringpiece_internal::StringPiece", ptr %3, i32 0, i32 1
  %5 = load i64, ptr %4, align 8, !tbaa !14
  ret i64 %5
}

; Function Attrs: mustprogress uwtable
define hidden { ptr, i64 } @_ZNK6google8protobuf20stringpiece_internal11StringPiece6substrEmm(ptr noundef nonnull align 8 dereferenceable(16) %0, i64 noundef %1, i64 noundef %2) #0 align 2 {
  %4 = alloca %"class.google::protobuf::stringpiece_internal::StringPiece", align 8
  %5 = alloca ptr, align 8
  %6 = alloca i64, align 8
  %7 = alloca i64, align 8
  store ptr %0, ptr %5, align 8, !tbaa !8
  store i64 %1, ptr %6, align 8, !tbaa !15
  store i64 %2, ptr %7, align 8, !tbaa !15
  %8 = load ptr, ptr %5, align 8
  %9 = load i64, ptr %6, align 8, !tbaa !15
  %10 = call noundef i64 @_ZNK6google8protobuf20stringpiece_internal11StringPiece6lengthEv(ptr noundef nonnull align 8 dereferenceable(16) %8)
  %11 = icmp ugt i64 %9, %10
  br i1 %11, label %12, label %14

12:                                               ; preds = %3
  %13 = call noundef i64 @_ZNK6google8protobuf20stringpiece_internal11StringPiece6lengthEv(ptr noundef nonnull align 8 dereferenceable(16) %8)
  store i64 %13, ptr %6, align 8, !tbaa !15
  br label %14

14:                                               ; preds = %12, %3
  %15 = load i64, ptr %7, align 8, !tbaa !15
  %16 = getelementptr inbounds nuw %"class.google::protobuf::stringpiece_internal::StringPiece", ptr %8, i32 0, i32 1
  %17 = load i64, ptr %16, align 8, !tbaa !14
  %18 = load i64, ptr %6, align 8, !tbaa !15
  %19 = sub i64 %17, %18
  %20 = icmp ugt i64 %15, %19
  br i1 %20, label %21, label %25

21:                                               ; preds = %14
  %22 = call noundef i64 @_ZNK6google8protobuf20stringpiece_internal11StringPiece6lengthEv(ptr noundef nonnull align 8 dereferenceable(16) %8)
  %23 = load i64, ptr %6, align 8, !tbaa !15
  %24 = sub i64 %22, %23
  store i64 %24, ptr %7, align 8, !tbaa !15
  br label %25

25:                                               ; preds = %21, %14
  %26 = getelementptr inbounds nuw %"class.google::protobuf::stringpiece_internal::StringPiece", ptr %8, i32 0, i32 0
  %27 = load ptr, ptr %26, align 8, !tbaa !10
  %28 = load i64, ptr %6, align 8, !tbaa !15
  %29 = getelementptr inbounds nuw i8, ptr %27, i64 %28
  %30 = load i64, ptr %7, align 8, !tbaa !15
  call void @_ZN6google8protobuf20stringpiece_internal11StringPieceC2EPKcm(ptr noundef nonnull align 8 dereferenceable(16) %4, ptr noundef %29, i64 noundef %30)
  %31 = load { ptr, i64 }, ptr %4, align 8
  ret { ptr, i64 } %31
}