; Function Attrs: mustprogress nofree norecurse nosync nounwind willreturn memory(argmem: read) uwtable
define hidden { ptr, i64 } @_ZNK6google8protobuf20stringpiece_internal11StringPiece6substrEmm(ptr noundef nonnull readonly align 8 captures(none) dereferenceable(16) %0, i64 noundef %1, i64 noundef %2) local_unnamed_addr #11 align 2 {
  %4 = getelementptr inbounds nuw i8, ptr %0, i64 8
  %5 = load i64, ptr %4, align 8, !tbaa !10
  %spec.select = tail call i64 @llvm.umin.i64(i64 %1, i64 %5)
  %6 = sub i64 %5, %spec.select
  %.0 = tail call i64 @llvm.umin.i64(i64 %2, i64 %6)
  %7 = load ptr, ptr %0, align 8, !tbaa !3
  %8 = getelementptr inbounds nuw i8, ptr %7, i64 %spec.select
  %.fca.0.insert = insertvalue { ptr, i64 } poison, ptr %8, 0
  %.fca.1.insert = insertvalue { ptr, i64 } %.fca.0.insert, i64 %.0, 1
  ret { ptr, i64 } %.fca.1.insert
}